; Function Attrs: nounwind uwtable
define internal fastcc ptr @bitxor(ptr nocapture noundef writeonly %rest, ptr noundef %tok) unnamed_addr #0 {
entry:
  %tok.addr.i20 = alloca ptr, align 8
  %tok.addr.i2 = alloca ptr, align 8
  %tok.addr.i = alloca ptr, align 8
  call void @llvm.lifetime.start.p0(i64 8, ptr nonnull %tok.addr.i)
  store ptr %tok, ptr %tok.addr.i, align 8
  %call.i = call fastcc ptr @equality(ptr noundef nonnull %tok.addr.i, ptr noundef %tok)
  %0 = load ptr, ptr %tok.addr.i, align 8
  %call1.i30 = tail call zeroext i1 @equal(ptr noundef %0, ptr noundef nonnull @.str.9) #13
  br i1 %call1.i30, label %while.body.i, label %bitand.exit

while.body.i:                                     ; preds = %entry, %while.body.i
  %1 = phi ptr [ %3, %while.body.i ], [ %0, %entry ]
  %node.0.i31 = phi ptr [ %call.i.i12, %while.body.i ], [ %call.i, %entry ]
  %next.i = getelementptr inbounds %struct.Token, ptr %1, i64 0, i32 1
  %2 = load ptr, ptr %next.i, align 8
  %call2.i = call fastcc ptr @equality(ptr noundef nonnull %tok.addr.i, ptr noundef %2)
  %call.i.i12 = tail call noalias noundef dereferenceable_or_null(288) ptr @calloc(i64 noundef 1, i64 noundef 288) #14
  store i32 7, ptr %call.i.i12, align 16
  %tok2.i.i13 = getelementptr inbounds %struct.Node, ptr %call.i.i12, i64 0, i32 3
  store ptr %1, ptr %tok2.i.i13, align 8
  %lhs1.i14 = getelementptr inbounds %struct.Node, ptr %call.i.i12, i64 0, i32 4
  store ptr %node.0.i31, ptr %lhs1.i14, align 16
  %rhs2.i15 = getelementptr inbounds %struct.Node, ptr %call.i.i12, i64 0, i32 5
  store ptr %call2.i, ptr %rhs2.i15, align 8
  %3 = load ptr, ptr %tok.addr.i, align 8
  %call1.i = tail call zeroext i1 @equal(ptr noundef %3, ptr noundef nonnull @.str.9) #13
  br i1 %call1.i, label %while.body.i, label %bitand.exit, !llvm.loop !23

bitand.exit:                                      ; preds = %while.body.i, %entry
  %node.0.i.lcssa = phi ptr [ %call.i, %entry ], [ %call.i.i12, %while.body.i ]
  %.lcssa29 = phi ptr [ %0, %entry ], [ %3, %while.body.i ]
  call void @llvm.lifetime.end.p0(i64 8, ptr nonnull %tok.addr.i)
  %call140 = tail call zeroext i1 @equal(ptr noundef %.lcssa29, ptr noundef nonnull @.str.8) #13
  br i1 %call140, label %while.body, label %while.end

while.body:                                       ; preds = %bitand.exit, %bitand.exit11
  %node.042 = phi ptr [ %call.i.i, %bitand.exit11 ], [ %node.0.i.lcssa, %bitand.exit ]
  %tok.addr.041 = phi ptr [ %.lcssa33.lcssa, %bitand.exit11 ], [ %.lcssa29, %bitand.exit ]
  %next = getelementptr inbounds %struct.Token, ptr %tok.addr.041, i64 0, i32 1
  %4 = load ptr, ptr %next, align 8
  call void @llvm.lifetime.start.p0(i64 8, ptr nonnull %tok.addr.i2)
  store ptr %4, ptr %tok.addr.i2, align 8
  %call.i3 = call fastcc ptr @equality(ptr noundef nonnull %tok.addr.i2, ptr noundef %4)
  %tok.addr.i2.promoted = load ptr, ptr %tok.addr.i2, align 8
  %call1.i634 = tail call zeroext i1 @equal(ptr noundef %tok.addr.i2.promoted, ptr noundef nonnull @.str.9) #13
  br i1 %call1.i634, label %while.body.i7, label %bitand.exit11

while.body.i7:                                    ; preds = %while.body, %equality.exit
  %node.0.i536 = phi ptr [ %call.i.i16, %equality.exit ], [ %call.i3, %while.body ]
  %.lcssa3335 = phi ptr [ %6, %equality.exit ], [ %tok.addr.i2.promoted, %while.body ]
  %next.i8 = getelementptr inbounds %struct.Token, ptr %.lcssa3335, i64 0, i32 1
  %5 = load ptr, ptr %next.i8, align 8
  call void @llvm.lifetime.start.p0(i64 8, ptr nonnull %tok.addr.i20)
  store ptr %5, ptr %tok.addr.i20, align 8
  %call.i21 = call fastcc ptr @relational(ptr noundef nonnull %tok.addr.i20, ptr noundef %5)
  br label %for.cond.i

for.cond.i:                                       ; preds = %for.cond.i.backedge, %while.body.i7
  %node.0.i22 = phi ptr [ %call.i21, %while.body.i7 ], [ %call.i.i.i.sink48, %for.cond.i.backedge ]
  %6 = load ptr, ptr %tok.addr.i20, align 8
  %call1.i23 = tail call zeroext i1 @equal(ptr noundef %6, ptr noundef nonnull @.str.10) #13
  br i1 %call1.i23, label %if.then.i, label %if.end.i

if.then.i:                                        ; preds = %for.cond.i
  %next.i24 = getelementptr inbounds %struct.Token, ptr %6, i64 0, i32 1
  %7 = load ptr, ptr %next.i24, align 8
  %call2.i25 = call fastcc ptr @relational(ptr noundef nonnull %tok.addr.i20, ptr noundef %7)
  %call.i.i.i = tail call noalias noundef dereferenceable_or_null(288) ptr @calloc(i64 noundef 1, i64 noundef 288) #14
  store i32 12, ptr %call.i.i.i, align 16
  br label %for.cond.i.backedge

for.cond.i.backedge:                              ; preds = %if.then.i, %if.then5.i
  %call.i.i.i.sink48 = phi ptr [ %call.i.i.i, %if.then.i ], [ %call.i.i4.i, %if.then5.i ]
  %call2.i25.sink = phi ptr [ %call2.i25, %if.then.i ], [ %call7.i, %if.then5.i ]
  %tok2.i.i.i = getelementptr inbounds %struct.Node, ptr %call.i.i.i.sink48, i64 0, i32 3
  store ptr %6, ptr %tok2.i.i.i, align 8
  %lhs1.i.i = getelementptr inbounds %struct.Node, ptr %call.i.i.i.sink48, i64 0, i32 4
  store ptr %node.0.i22, ptr %lhs1.i.i, align 16
  %rhs2.i.i = getelementptr inbounds %struct.Node, ptr %call.i.i.i.sink48, i64 0, i32 5
  store ptr %call2.i25.sink, ptr %rhs2.i.i, align 8
  br label %for.cond.i

if.end.i:                                         ; preds = %for.cond.i
  %call4.i = tail call zeroext i1 @equal(ptr noundef %6, ptr noundef nonnull @.str.11) #13
  br i1 %call4.i, label %if.then5.i, label %equality.exit

if.then5.i:                                       ; preds = %if.end.i
  %next6.i = getelementptr inbounds %struct.Token, ptr %6, i64 0, i32 1
  %8 = load ptr, ptr %next6.i, align 8
  %call7.i = call fastcc ptr @relational(ptr noundef nonnull %tok.addr.i20, ptr noundef %8)
  %call.i.i4.i = tail call noalias noundef dereferenceable_or_null(288) ptr @calloc(i64 noundef 1, i64 noundef 288) #14
  store i32 13, ptr %call.i.i4.i, align 16
  br label %for.cond.i.backedge

equality.exit:                                    ; preds = %if.end.i
  call void @llvm.lifetime.end.p0(i64 8, ptr nonnull %tok.addr.i20)
  %call.i.i16 = tail call noalias noundef dereferenceable_or_null(288) ptr @calloc(i64 noundef 1, i64 noundef 288) #14
  store i32 7, ptr %call.i.i16, align 16
  %tok2.i.i17 = getelementptr inbounds %struct.Node, ptr %call.i.i16, i64 0, i32 3
  store ptr %.lcssa3335, ptr %tok2.i.i17, align 8
  %lhs1.i18 = getelementptr inbounds %struct.Node, ptr %call.i.i16, i64 0, i32 4
  store ptr %node.0.i536, ptr %lhs1.i18, align 16
  %rhs2.i19 = getelementptr inbounds %struct.Node, ptr %call.i.i16, i64 0, i32 5
  store ptr %node.0.i22, ptr %rhs2.i19, align 8
  %call1.i6 = tail call zeroext i1 @equal(ptr noundef %6, ptr noundef nonnull @.str.9) #13
  br i1 %call1.i6, label %while.body.i7, label %bitand.exit11, !llvm.loop !23

bitand.exit11:                                    ; preds = %equality.exit, %while.body
  %.lcssa33.lcssa = phi ptr [ %tok.addr.i2.promoted, %while.body ], [ %6, %equality.exit ]
  %node.0.i5.lcssa = phi ptr [ %call.i3, %while.body ], [ %call.i.i16, %equality.exit ]
  call void @llvm.lifetime.end.p0(i64 8, ptr nonnull %tok.addr.i2)
  %call.i.i = tail call noalias noundef dereferenceable_or_null(288) ptr @calloc(i64 noundef 1, i64 noundef 288) #14
  store i32 9, ptr %call.i.i, align 16
  %tok2.i.i = getelementptr inbounds %struct.Node, ptr %call.i.i, i64 0, i32 3
  store ptr %tok.addr.041, ptr %tok2.i.i, align 8
  %lhs1.i = getelementptr inbounds %struct.Node, ptr %call.i.i, i64 0, i32 4
  store ptr %node.042, ptr %lhs1.i, align 16
  %rhs2.i = getelementptr inbounds %struct.Node, ptr %call.i.i, i64 0, i32 5
  store ptr %node.0.i5.lcssa, ptr %rhs2.i, align 8
  %call1 = tail call zeroext i1 @equal(ptr noundef %.lcssa33.lcssa, ptr noundef nonnull @.str.8) #13
  br i1 %call1, label %while.body, label %while.end, !llvm.loop !24

while.end:                                        ; preds = %bitand.exit11, %bitand.exit
  %tok.addr.0.lcssa = phi ptr [ %.lcssa29, %bitand.exit ], [ %.lcssa33.lcssa, %bitand.exit11 ]
  %node.0.lcssa = phi ptr [ %node.0.i.lcssa, %bitand.exit ], [ %call.i.i, %bitand.exit11 ]
  store ptr %tok.addr.0.lcssa, ptr %rest, align 8
  ret ptr %node.0.lcssa
}